; Function Attrs: mustprogress nounwind uwtable
define void @mupRelease(ptr noundef %0) local_unnamed_addr #4 {
  %2 = icmp eq ptr %0, null
  br i1 %2, label %11, label %3

3:                                                ; preds = %1
  %4 = load ptr, ptr %0, align 8, !tbaa !4
  %5 = icmp eq ptr %4, null
  br i1 %5, label %_ZN9ParserTagD2Ev.exit, label %6

6:                                                ; preds = %3
  %7 = load ptr, ptr %4, align 8, !tbaa !22
  %8 = getelementptr inbounds nuw i8, ptr %7, i64 8
  %9 = load ptr, ptr %8, align 8
  tail call void %9(ptr noundef nonnull align 8 dereferenceable(596) %4) #23
  br label %_ZN9ParserTagD2Ev.exit

_ZN9ParserTagD2Ev.exit:                           ; preds = %3, %6
  %10 = getelementptr inbounds nuw i8, ptr %0, i64 8
  tail call void @_ZN2mu11ParserErrorD1Ev(ptr noundef nonnull align 8 dereferenceable(112) %10) #23
  tail call void @_ZdlPv(ptr noundef nonnull %0) #26
  br label %11

11:                                               ; preds = %_ZN9ParserTagD2Ev.exit, %1
  ret void
}